target datalayout = "e-m:e-p270:32:32-p271:32:32-p272:64:64-i64:64-i128:128-f80:128-n8:16:32:64-S128"
target triple = "x86_64-pc-linux-gnu"

%struct.H5FD_core_t = type { %struct.H5FD_t, ptr, ptr, i64, i64, i64, i8, i8, i64, i8, i32, i64, i64, i8, %struct.H5FD_file_image_callbacks_t, ptr }
%struct.H5FD_t = type { i64, ptr, i64, i32, i64, i64, i64, i64, i64, i8 }
%struct.H5FD_file_image_callbacks_t = type { ptr, ptr, ptr, ptr, ptr, ptr, ptr }

@H5FD_init_g = external global i8, align 1
@H5_libterm_g = external global i8, align 1
@.str.1 = private unnamed_addr constant [102 x i8] c"generated/home/dtcxzyw/WorkSpace/Projects/compilers/llvm-opt-benchmark/bench/hdf5/hdf5/src/H5FDcore.c\00", align 1
@H5E_FILE_g = external global i64, align 8
@H5E_BADFILE_g = external global i64, align 8
@.str.22 = private unnamed_addr constant [37 x i8] c"%s, errno = %d, error message = '%s'\00", align 1
@__func__.H5FD__core_unlock = private unnamed_addr constant [18 x i8] c"H5FD__core_unlock\00", align 1
@.str.52 = private unnamed_addr constant [22 x i8] c"unable to unlock file\00", align 1

; Function Attrs: nounwind uwtable
define internal i32 @H5FD__core_unlock(ptr noundef %0) #0 {
  %2 = alloca i32, align 4
  %3 = alloca ptr, align 8
  %4 = alloca ptr, align 8
  %5 = alloca i32, align 4
  %6 = alloca i8, align 1
  %7 = alloca i32, align 4
  %8 = alloca i32, align 4
  store ptr %0, ptr %3, align 8, !tbaa !29
  call void @llvm.lifetime.start.p0(i64 8, ptr %4) #12
  %9 = load ptr, ptr %3, align 8, !tbaa !29
  store ptr %9, ptr %4, align 8, !tbaa !31
  call void @llvm.lifetime.start.p0(i64 4, ptr %5) #12
  store i32 0, ptr %5, align 4, !tbaa !3
  call void @llvm.lifetime.start.p0(i64 1, ptr %6) #12
  store i8 0, ptr %6, align 1, !tbaa !7
  %10 = load i8, ptr @H5FD_init_g, align 1, !tbaa !7, !range !9, !noundef !10
  %11 = trunc i8 %10 to i1
  br i1 %11, label %16, label %12

12:                                               ; preds = %1
  %13 = load i8, ptr @H5_libterm_g, align 1, !tbaa !7, !range !9, !noundef !10
  %14 = trunc i8 %13 to i1
  %15 = xor i1 %14, true
  br label %16

16:                                               ; preds = %12, %1
  %17 = phi i1 [ true, %1 ], [ %15, %12 ]
  %18 = xor i1 %17, true
  %19 = xor i1 %18, true
  %20 = zext i1 %19 to i32
  %21 = sext i32 %20 to i64
  %22 = call i64 @llvm.expect.i64(i64 %21, i64 1)
  %23 = icmp ne i64 %22, 0
  br i1 %23, label %24, label %77

24:                                               ; preds = %16
  %25 = load ptr, ptr %4, align 8, !tbaa !31
  %26 = getelementptr inbounds nuw %struct.H5FD_core_t, ptr %25, i32 0, i32 10
  %27 = load i32, ptr %26, align 4, !tbaa !40
  %28 = icmp sge i32 %27, 0
  br i1 %28, label %29, label %75

29:                                               ; preds = %24
  %30 = load ptr, ptr %4, align 8, !tbaa !31
  %31 = getelementptr inbounds nuw %struct.H5FD_core_t, ptr %30, i32 0, i32 10
  %32 = load i32, ptr %31, align 4, !tbaa !40
  %33 = call i32 @flock(i32 noundef %32, i32 noundef 8) #12
  %34 = icmp slt i32 %33, 0
  br i1 %34, label %35, label %74

35:                                               ; preds = %29
  %36 = load ptr, ptr %4, align 8, !tbaa !31
  %37 = getelementptr inbounds nuw %struct.H5FD_core_t, ptr %36, i32 0, i32 9
  %38 = load i8, ptr %37, align 8, !tbaa !49, !range !9, !noundef !10
  %39 = trunc i8 %38 to i1
  br i1 %39, label %40, label %46

40:                                               ; preds = %35
  %41 = call ptr @__errno_location() #15
  %42 = load i32, ptr %41, align 4, !tbaa !3
  %43 = icmp eq i32 38, %42
  br i1 %43, label %44, label %46

44:                                               ; preds = %40
  %45 = call ptr @__errno_location() #15
  store i32 0, ptr %45, align 4, !tbaa !3
  br label %73

46:                                               ; preds = %40, %35
  call void @llvm.lifetime.start.p0(i64 4, ptr %7) #12
  %47 = call ptr @__errno_location() #15
  %48 = load i32, ptr %47, align 4, !tbaa !3
  store i32 %48, ptr %7, align 4, !tbaa !3
  br label %49

49:                                               ; preds = %46
  br label %50

50:                                               ; preds = %49
  br label %51

51:                                               ; preds = %50
  %52 = load i64, ptr @H5E_FILE_g, align 8, !tbaa !11
  %53 = load i64, ptr @H5E_BADFILE_g, align 8, !tbaa !11
  %54 = load i32, ptr %7, align 4, !tbaa !3
  %55 = load i32, ptr %7, align 4, !tbaa !3
  %56 = call ptr @strerror(i32 noundef %55) #12
  %57 = call i32 (ptr, ptr, i32, i64, i64, ptr, ...) @H5E_printf_stack(ptr noundef @.str.1, ptr noundef @__func__.H5FD__core_unlock, i32 noundef 1672, i64 noundef %52, i64 noundef %53, ptr noundef @.str.22, ptr noundef @.str.52, i32 noundef %54, ptr noundef %56)
  br label %58

58:                                               ; preds = %51
  br label %59

59:                                               ; preds = %58
  store i8 1, ptr %6, align 1, !tbaa !7
  %60 = load i8, ptr %6, align 1, !tbaa !7, !range !9, !noundef !10
  %61 = trunc i8 %60 to i1
  %62 = zext i1 %61 to i8
  store i8 %62, ptr %6, align 1, !tbaa !7
  br label %63

63:                                               ; preds = %59
  br label %64

64:                                               ; preds = %63
  br label %65

65:                                               ; preds = %64
  store i32 -1, ptr %5, align 4, !tbaa !3
  store i32 10, ptr %8, align 4
  br label %70

66:                                               ; No predecessors!
  br label %67

67:                                               ; preds = %66
  br label %68

68:                                               ; preds = %67
  br label %69

69:                                               ; preds = %68
  store i32 0, ptr %8, align 4
  br label %70

70:                                               ; preds = %65, %69
  call void @llvm.lifetime.end.p0(i64 4, ptr %7) #12
  %71 = load i32, ptr %8, align 4
  switch i32 %71, label %79 [
    i32 0, label %72
    i32 10, label %76
  ]

72:                                               ; preds = %70
  br label %73

73:                                               ; preds = %72, %44
  br label %74

74:                                               ; preds = %73, %29
  br label %75

75:                                               ; preds = %74, %24
  br label %76

76:                                               ; preds = %75, %70
  br label %77

77:                                               ; preds = %76, %16
  %78 = load i32, ptr %5, align 4, !tbaa !3
  store i32 %78, ptr %2, align 4
  store i32 1, ptr %8, align 4
  br label %79

79:                                               ; preds = %77, %70
  call void @llvm.lifetime.end.p0(i64 1, ptr %6) #12
  call void @llvm.lifetime.end.p0(i64 4, ptr %5) #12
  call void @llvm.lifetime.end.p0(i64 8, ptr %4) #12
  %80 = load i32, ptr %2, align 4
  ret i32 %80
}