; Function Attrs: nounwind uwtable
define internal range(i32 -1, 1) i32 @H5FD__core_unlock(ptr noundef readonly captures(none) %0) #0 {
  %2 = load i8, ptr @H5FD_init_g, align 1, !tbaa !3, !range !7, !noundef !8
  %3 = trunc nuw i8 %2 to i1
  %4 = load i8, ptr @H5_libterm_g, align 1, !range !7
  %5 = trunc nuw i8 %4 to i1
  %6 = xor i1 %5, true
  %7 = select i1 %3, i1 true, i1 %6
  br i1 %7, label %8, label %29, !prof !9

8:                                                ; preds = %1
  %9 = getelementptr inbounds nuw i8, ptr %0, i64 140
  %10 = load i32, ptr %9, align 4, !tbaa !30
  %11 = icmp sgt i32 %10, -1
  br i1 %11, label %12, label %29

12:                                               ; preds = %8
  %13 = tail call i32 @flock(i32 noundef %10, i32 noundef 8) #18
  %14 = icmp slt i32 %13, 0
  br i1 %14, label %15, label %29

15:                                               ; preds = %12
  %16 = getelementptr inbounds nuw i8, ptr %0, i64 136
  %17 = load i8, ptr %16, align 8, !tbaa !41, !range !7, !noundef !8
  %18 = trunc nuw i8 %17 to i1
  %19 = tail call ptr @__errno_location() #21
  br i1 %18, label %20, label %._crit_edge

20:                                               ; preds = %15
  %21 = load i32, ptr %19, align 4, !tbaa !36
  %22 = icmp eq i32 %21, 38
  br i1 %22, label %23, label %._crit_edge

23:                                               ; preds = %20
  store i32 0, ptr %19, align 4, !tbaa !36
  br label %29

._crit_edge:                                      ; preds = %15, %20
  %24 = load i32, ptr %19, align 4, !tbaa !36
  %25 = load i64, ptr @H5E_FILE_g, align 8, !tbaa !10
  %26 = load i64, ptr @H5E_BADFILE_g, align 8, !tbaa !10
  %27 = tail call ptr @strerror(i32 noundef %24) #18
  %28 = tail call i32 (ptr, ptr, i32, i64, i64, ptr, ...) @H5E_printf_stack(ptr noundef nonnull @.str.1, ptr noundef nonnull @__func__.H5FD__core_unlock, i32 noundef 1672, i64 noundef %25, i64 noundef %26, ptr noundef nonnull @.str.22, ptr noundef nonnull @.str.52, i32 noundef %24, ptr noundef %27) #18
  br label %29

29:                                               ; preds = %1, %8, %23, %12, %._crit_edge
  %.09 = phi i32 [ 0, %23 ], [ -1, %._crit_edge ], [ 0, %12 ], [ 0, %8 ], [ 0, %1 ]
  ret i32 %.09
}